target datalayout = "e-m:e-p270:32:32-p271:32:32-p272:64:64-i64:64-i128:128-f80:128-n8:16:32:64-S128"
target triple = "x86_64-pc-linux-gnu"

%struct.TGAImage = type { i32, i32, i8, %"class.std::vector" }
%"class.std::vector" = type { %"struct.std::_Vector_base" }
%"struct.std::_Vector_base" = type { %"struct.std::_Vector_base<unsigned char, std::allocator<unsigned char>>::_Vector_impl" }
%"struct.std::_Vector_base<unsigned char, std::allocator<unsigned char>>::_Vector_impl" = type { %"struct.std::_Vector_base<unsigned char, std::allocator<unsigned char>>::_Vector_impl_data" }
%"struct.std::_Vector_base<unsigned char, std::allocator<unsigned char>>::_Vector_impl_data" = type { ptr, ptr, ptr }

; Function Attrs: inlinehint mustprogress nounwind uwtable
define linkonce_odr dso_local void @_ZSt4swapIhENSt9enable_ifIXsr6__and_ISt6__not_ISt15__is_tuple_likeIT_EESt21is_move_constructibleIS3_ESt18is_move_assignableIS3_EEE5valueEvE4typeERS3_SC_(ptr noundef nonnull align 1 dereferenceable(1) %0, ptr noundef nonnull align 1 dereferenceable(1) %1) #8 comdat {
  %3 = alloca ptr, align 8
  %4 = alloca ptr, align 8
  %5 = alloca i8, align 1
  store ptr %0, ptr %3, align 8, !tbaa !28
  store ptr %1, ptr %4, align 8, !tbaa !28
  call void @llvm.lifetime.start.p0(i64 1, ptr %5) #3
  %6 = load ptr, ptr %3, align 8, !tbaa !28
  %7 = load i8, ptr %6, align 1, !tbaa !21
  store i8 %7, ptr %5, align 1, !tbaa !21
  %8 = load ptr, ptr %4, align 8, !tbaa !28
  %9 = load i8, ptr %8, align 1, !tbaa !21
  %10 = load ptr, ptr %3, align 8, !tbaa !28
  store i8 %9, ptr %10, align 1, !tbaa !21
  %11 = load i8, ptr %5, align 1, !tbaa !21
  %12 = load ptr, ptr %4, align 8, !tbaa !28
  store i8 %11, ptr %12, align 1, !tbaa !21
  call void @llvm.lifetime.end.p0(i64 1, ptr %5) #3
  ret void
}

; Function Attrs: mustprogress nounwind uwtable
define linkonce_odr dso_local noundef nonnull align 1 dereferenceable(1) ptr @_ZNSt6vectorIhSaIhEEixEm(ptr noundef nonnull align 8 dereferenceable(24) %0, i64 noundef %1) #6 comdat align 2 {
  %3 = alloca ptr, align 8
  %4 = alloca i64, align 8
  store ptr %0, ptr %3, align 8, !tbaa !24
  store i64 %1, ptr %4, align 8, !tbaa !26
  %5 = load ptr, ptr %3, align 8
  %6 = getelementptr inbounds nuw %"struct.std::_Vector_base", ptr %5, i32 0, i32 0
  %7 = getelementptr inbounds nuw %"struct.std::_Vector_base<unsigned char, std::allocator<unsigned char>>::_Vector_impl_data", ptr %6, i32 0, i32 0
  %8 = load ptr, ptr %7, align 8, !tbaa !33
  %9 = load i64, ptr %4, align 8, !tbaa !26
  %10 = getelementptr inbounds nuw i8, ptr %8, i64 %9
  ret ptr %10
}

; Function Attrs: mustprogress nounwind uwtable
define dso_local void @_ZN8TGAImage17flip_horizontallyEv(ptr noundef nonnull align 8 dereferenceable(40) %0) #6 align 2 {
  %2 = alloca ptr, align 8
  %3 = alloca i32, align 4
  %4 = alloca i32, align 4
  %5 = alloca i32, align 4
  %6 = alloca i32, align 4
  store ptr %0, ptr %2, align 8, !tbaa !5
  %7 = load ptr, ptr %2, align 8
  call void @llvm.lifetime.start.p0(i64 4, ptr %3) #3
  store i32 0, ptr %3, align 4, !tbaa !10
  br label %8

8:                                                ; preds = %73, %1
  %9 = load i32, ptr %3, align 4, !tbaa !10
  %10 = getelementptr inbounds nuw %struct.TGAImage, ptr %7, i32 0, i32 0
  %11 = load i32, ptr %10, align 8, !tbaa !12
  %12 = sdiv i32 %11, 2
  %13 = icmp slt i32 %9, %12
  br i1 %13, label %15, label %14

14:                                               ; preds = %8
  store i32 2, ptr %4, align 4
  call void @llvm.lifetime.end.p0(i64 4, ptr %3) #3
  br label %76

15:                                               ; preds = %8
  call void @llvm.lifetime.start.p0(i64 4, ptr %5) #3
  store i32 0, ptr %5, align 4, !tbaa !10
  br label %16

16:                                               ; preds = %69, %15
  %17 = load i32, ptr %5, align 4, !tbaa !10
  %18 = getelementptr inbounds nuw %struct.TGAImage, ptr %7, i32 0, i32 1
  %19 = load i32, ptr %18, align 4, !tbaa !19
  %20 = icmp slt i32 %17, %19
  br i1 %20, label %22, label %21

21:                                               ; preds = %16
  store i32 5, ptr %4, align 4
  call void @llvm.lifetime.end.p0(i64 4, ptr %5) #3
  br label %72

22:                                               ; preds = %16
  call void @llvm.lifetime.start.p0(i64 4, ptr %6) #3
  store i32 0, ptr %6, align 4, !tbaa !10
  br label %23

23:                                               ; preds = %65, %22
  %24 = load i32, ptr %6, align 4, !tbaa !10
  %25 = getelementptr inbounds nuw %struct.TGAImage, ptr %7, i32 0, i32 2
  %26 = load i8, ptr %25, align 8, !tbaa !20
  %27 = zext i8 %26 to i32
  %28 = icmp slt i32 %24, %27
  br i1 %28, label %30, label %29

29:                                               ; preds = %23
  store i32 8, ptr %4, align 4
  call void @llvm.lifetime.end.p0(i64 4, ptr %6) #3
  br label %68

30:                                               ; preds = %23
  %31 = getelementptr inbounds nuw %struct.TGAImage, ptr %7, i32 0, i32 3
  %32 = load i32, ptr %3, align 4, !tbaa !10
  %33 = load i32, ptr %5, align 4, !tbaa !10
  %34 = getelementptr inbounds nuw %struct.TGAImage, ptr %7, i32 0, i32 0
  %35 = load i32, ptr %34, align 8, !tbaa !12
  %36 = mul nsw i32 %33, %35
  %37 = add nsw i32 %32, %36
  %38 = getelementptr inbounds nuw %struct.TGAImage, ptr %7, i32 0, i32 2
  %39 = load i8, ptr %38, align 8, !tbaa !20
  %40 = zext i8 %39 to i32
  %41 = mul nsw i32 %37, %40
  %42 = load i32, ptr %6, align 4, !tbaa !10
  %43 = add nsw i32 %41, %42
  %44 = sext i32 %43 to i64
  %45 = call noundef nonnull align 1 dereferenceable(1) ptr @_ZNSt6vectorIhSaIhEEixEm(ptr noundef nonnull align 8 dereferenceable(24) %31, i64 noundef %44) #3
  %46 = getelementptr inbounds nuw %struct.TGAImage, ptr %7, i32 0, i32 3
  %47 = getelementptr inbounds nuw %struct.TGAImage, ptr %7, i32 0, i32 0
  %48 = load i32, ptr %47, align 8, !tbaa !12
  %49 = sub nsw i32 %48, 1
  %50 = load i32, ptr %3, align 4, !tbaa !10
  %51 = sub nsw i32 %49, %50
  %52 = load i32, ptr %5, align 4, !tbaa !10
  %53 = getelementptr inbounds nuw %struct.TGAImage, ptr %7, i32 0, i32 0
  %54 = load i32, ptr %53, align 8, !tbaa !12
  %55 = mul nsw i32 %52, %54
  %56 = add nsw i32 %51, %55
  %57 = getelementptr inbounds nuw %struct.TGAImage, ptr %7, i32 0, i32 2
  %58 = load i8, ptr %57, align 8, !tbaa !20
  %59 = zext i8 %58 to i32
  %60 = mul nsw i32 %56, %59
  %61 = load i32, ptr %6, align 4, !tbaa !10
  %62 = add nsw i32 %60, %61
  %63 = sext i32 %62 to i64
  %64 = call noundef nonnull align 1 dereferenceable(1) ptr @_ZNSt6vectorIhSaIhEEixEm(ptr noundef nonnull align 8 dereferenceable(24) %46, i64 noundef %63) #3
  call void @_ZSt4swapIhENSt9enable_ifIXsr6__and_ISt6__not_ISt15__is_tuple_likeIT_EESt21is_move_constructibleIS3_ESt18is_move_assignableIS3_EEE5valueEvE4typeERS3_SC_(ptr noundef nonnull align 1 dereferenceable(1) %45, ptr noundef nonnull align 1 dereferenceable(1) %64) #3
  br label %65

65:                                               ; preds = %30
  %66 = load i32, ptr %6, align 4, !tbaa !10
  %67 = add nsw i32 %66, 1
  store i32 %67, ptr %6, align 4, !tbaa !10
  br label %23, !llvm.loop !83

68:                                               ; preds = %29
  br label %69

69:                                               ; preds = %68
  %70 = load i32, ptr %5, align 4, !tbaa !10
  %71 = add nsw i32 %70, 1
  store i32 %71, ptr %5, align 4, !tbaa !10
  br label %16, !llvm.loop !84

72:                                               ; preds = %21
  br label %73

73:                                               ; preds = %72
  %74 = load i32, ptr %3, align 4, !tbaa !10
  %75 = add nsw i32 %74, 1
  store i32 %75, ptr %3, align 4, !tbaa !10
  br label %8, !llvm.loop !85

76:                                               ; preds = %14
  ret void
}