; Function Attrs: mustprogress nofree norecurse nosync nounwind memory(readwrite, inaccessiblemem: none) uwtable
define dso_local void @_ZN8TGAImage17flip_horizontallyEv(ptr noundef nonnull readonly align 8 captures(none) dereferenceable(40) %0) local_unnamed_addr #9 align 2 {
  %2 = load i32, ptr %0, align 8, !tbaa !5
  %3 = icmp sgt i32 %2, 1
  br i1 %3, label %.preheader15.lr.ph, label %._crit_edge20

.preheader15.lr.ph:                               ; preds = %1
  %4 = getelementptr inbounds nuw i8, ptr %0, i64 4
  %5 = getelementptr inbounds nuw i8, ptr %0, i64 8
  %6 = getelementptr inbounds nuw i8, ptr %0, i64 16
  %7 = load i32, ptr %4, align 4, !tbaa !16
  %8 = icmp sgt i32 %7, 0
  br i1 %8, label %.preheader15, label %._crit_edge20

.preheader15:                                     ; preds = %.preheader15.lr.ph, %._crit_edge18
  %9 = phi i32 [ %17, %._crit_edge18 ], [ %2, %.preheader15.lr.ph ]
  %10 = phi i32 [ %18, %._crit_edge18 ], [ %7, %.preheader15.lr.ph ]
  %11 = phi i32 [ %19, %._crit_edge18 ], [ %7, %.preheader15.lr.ph ]
  %.01319 = phi i32 [ %20, %._crit_edge18 ], [ 0, %.preheader15.lr.ph ]
  %12 = icmp sgt i32 %11, 0
  br i1 %12, label %.preheader.lr.ph, label %._crit_edge18

.preheader.lr.ph:                                 ; preds = %.preheader15
  %13 = xor i32 %.01319, -1
  %.pre = load i8, ptr %5, align 8, !tbaa !17
  br label %.preheader

._crit_edge20:                                    ; preds = %._crit_edge18, %.preheader15.lr.ph, %1
  ret void

.preheader:                                       ; preds = %.preheader.lr.ph, %._crit_edge
  %14 = phi i32 [ %10, %.preheader.lr.ph ], [ %23, %._crit_edge ]
  %15 = phi i8 [ %.pre, %.preheader.lr.ph ], [ %24, %._crit_edge ]
  %.01217 = phi i32 [ 0, %.preheader.lr.ph ], [ %25, %._crit_edge ]
  %.not = icmp eq i8 %15, 0
  br i1 %.not, label %._crit_edge, label %.lr.ph.preheader

.lr.ph.preheader:                                 ; preds = %.preheader
  %16 = zext i8 %15 to i32
  br label %.lr.ph

._crit_edge18.loopexit:                           ; preds = %._crit_edge
  %.pre23 = load i32, ptr %0, align 8, !tbaa !5
  br label %._crit_edge18

._crit_edge18:                                    ; preds = %._crit_edge18.loopexit, %.preheader15
  %17 = phi i32 [ %.pre23, %._crit_edge18.loopexit ], [ %9, %.preheader15 ]
  %18 = phi i32 [ %23, %._crit_edge18.loopexit ], [ %10, %.preheader15 ]
  %19 = phi i32 [ %23, %._crit_edge18.loopexit ], [ %11, %.preheader15 ]
  %20 = add nuw nsw i32 %.01319, 1
  %21 = sdiv i32 %17, 2
  %22 = icmp slt i32 %20, %21
  br i1 %22, label %.preheader15, label %._crit_edge20, !llvm.loop !56

._crit_edge.loopexit:                             ; preds = %.lr.ph
  %.pre22 = load i32, ptr %4, align 4, !tbaa !16
  br label %._crit_edge

._crit_edge:                                      ; preds = %._crit_edge.loopexit, %.preheader
  %23 = phi i32 [ %.pre22, %._crit_edge.loopexit ], [ %14, %.preheader ]
  %24 = phi i8 [ %45, %._crit_edge.loopexit ], [ 0, %.preheader ]
  %25 = add nuw nsw i32 %.01217, 1
  %26 = icmp slt i32 %25, %23
  br i1 %26, label %.preheader, label %._crit_edge18.loopexit, !llvm.loop !58

.lr.ph:                                           ; preds = %.lr.ph.preheader, %.lr.ph
  %27 = phi i32 [ %46, %.lr.ph ], [ %16, %.lr.ph.preheader ]
  %.016 = phi i32 [ %44, %.lr.ph ], [ 0, %.lr.ph.preheader ]
  %28 = load i32, ptr %0, align 8, !tbaa !5
  %29 = mul nsw i32 %28, %.01217
  %30 = add nsw i32 %29, %.01319
  %31 = mul nsw i32 %30, %27
  %32 = add nsw i32 %31, %.016
  %33 = sext i32 %32 to i64
  %34 = load ptr, ptr %6, align 8, !tbaa !18
  %35 = getelementptr inbounds nuw i8, ptr %34, i64 %33
  %36 = add i32 %28, %13
  %37 = add nsw i32 %36, %29
  %38 = mul nsw i32 %37, %27
  %39 = add nsw i32 %38, %.016
  %40 = sext i32 %39 to i64
  %41 = getelementptr inbounds nuw i8, ptr %34, i64 %40
  %42 = load i8, ptr %35, align 1, !tbaa !48
  %43 = load i8, ptr %41, align 1, !tbaa !48
  store i8 %43, ptr %35, align 1, !tbaa !48
  store i8 %42, ptr %41, align 1, !tbaa !48
  %44 = add nuw nsw i32 %.016, 1
  %45 = load i8, ptr %5, align 8, !tbaa !17
  %46 = zext i8 %45 to i32
  %47 = icmp samesign ult i32 %44, %46
  br i1 %47, label %.lr.ph, label %._crit_edge.loopexit, !llvm.loop !59
}